target datalayout = "e-m:e-p270:32:32-p271:32:32-p272:64:64-i64:64-i128:128-f80:128-n8:16:32:64-S128"
target triple = "x86_64-pc-linux-gnu"

@hf_glusterfs_bsize = internal global i32 0, align 4
@hf_glusterfs_frsize = internal global i32 0, align 4
@hf_glusterfs_blocks = internal global i32 0, align 4
@hf_glusterfs_bfree = internal global i32 0, align 4
@hf_glusterfs_bavail = internal global i32 0, align 4
@hf_glusterfs_files = internal global i32 0, align 4
@hf_glusterfs_ffree = internal global i32 0, align 4
@hf_glusterfs_favail = internal global i32 0, align 4
@hf_glusterfs_id = internal global i32 0, align 4
@hf_glusterfs_mnt_flags = internal global i32 0, align 4
@hf_glusterfs_namemax = internal global i32 0, align 4
@ett_glusterfs_mnt_flags = internal global i32 0, align 4

; Function Attrs: null_pointer_is_valid sspstrong uwtable
define internal i32 @glusterfs_rpc_dissect_statfs(ptr noundef %0, ptr noundef %1, i32 noundef %2) #0 {
  %4 = alloca ptr, align 8
  %5 = alloca ptr, align 8
  %6 = alloca i32, align 4
  store ptr %0, ptr %4, align 8
  store ptr %1, ptr %5, align 8
  store i32 %2, ptr %6, align 4
  %7 = load ptr, ptr %5, align 8
  %8 = load ptr, ptr %4, align 8
  %9 = load i32, ptr @hf_glusterfs_bsize, align 4
  %10 = load i32, ptr %6, align 4
  %11 = call i32 @dissect_rpc_uint64(ptr noundef %7, ptr noundef %8, i32 noundef %9, i32 noundef %10)
  store i32 %11, ptr %6, align 4
  %12 = load ptr, ptr %5, align 8
  %13 = load ptr, ptr %4, align 8
  %14 = load i32, ptr @hf_glusterfs_frsize, align 4
  %15 = load i32, ptr %6, align 4
  %16 = call i32 @dissect_rpc_uint64(ptr noundef %12, ptr noundef %13, i32 noundef %14, i32 noundef %15)
  store i32 %16, ptr %6, align 4
  %17 = load ptr, ptr %5, align 8
  %18 = load ptr, ptr %4, align 8
  %19 = load i32, ptr @hf_glusterfs_blocks, align 4
  %20 = load i32, ptr %6, align 4
  %21 = call i32 @dissect_rpc_uint64(ptr noundef %17, ptr noundef %18, i32 noundef %19, i32 noundef %20)
  store i32 %21, ptr %6, align 4
  %22 = load ptr, ptr %5, align 8
  %23 = load ptr, ptr %4, align 8
  %24 = load i32, ptr @hf_glusterfs_bfree, align 4
  %25 = load i32, ptr %6, align 4
  %26 = call i32 @dissect_rpc_uint64(ptr noundef %22, ptr noundef %23, i32 noundef %24, i32 noundef %25)
  store i32 %26, ptr %6, align 4
  %27 = load ptr, ptr %5, align 8
  %28 = load ptr, ptr %4, align 8
  %29 = load i32, ptr @hf_glusterfs_bavail, align 4
  %30 = load i32, ptr %6, align 4
  %31 = call i32 @dissect_rpc_uint64(ptr noundef %27, ptr noundef %28, i32 noundef %29, i32 noundef %30)
  store i32 %31, ptr %6, align 4
  %32 = load ptr, ptr %5, align 8
  %33 = load ptr, ptr %4, align 8
  %34 = load i32, ptr @hf_glusterfs_files, align 4
  %35 = load i32, ptr %6, align 4
  %36 = call i32 @dissect_rpc_uint64(ptr noundef %32, ptr noundef %33, i32 noundef %34, i32 noundef %35)
  store i32 %36, ptr %6, align 4
  %37 = load ptr, ptr %5, align 8
  %38 = load ptr, ptr %4, align 8
  %39 = load i32, ptr @hf_glusterfs_ffree, align 4
  %40 = load i32, ptr %6, align 4
  %41 = call i32 @dissect_rpc_uint64(ptr noundef %37, ptr noundef %38, i32 noundef %39, i32 noundef %40)
  store i32 %41, ptr %6, align 4
  %42 = load ptr, ptr %5, align 8
  %43 = load ptr, ptr %4, align 8
  %44 = load i32, ptr @hf_glusterfs_favail, align 4
  %45 = load i32, ptr %6, align 4
  %46 = call i32 @dissect_rpc_uint64(ptr noundef %42, ptr noundef %43, i32 noundef %44, i32 noundef %45)
  store i32 %46, ptr %6, align 4
  %47 = load ptr, ptr %5, align 8
  %48 = load ptr, ptr %4, align 8
  %49 = load i32, ptr @hf_glusterfs_id, align 4
  %50 = load i32, ptr %6, align 4
  %51 = call i32 @dissect_rpc_uint64(ptr noundef %47, ptr noundef %48, i32 noundef %49, i32 noundef %50)
  store i32 %51, ptr %6, align 4
  %52 = load ptr, ptr %4, align 8
  %53 = load ptr, ptr %5, align 8
  %54 = load i32, ptr %6, align 4
  %55 = load i32, ptr @hf_glusterfs_mnt_flags, align 4
  %56 = load i32, ptr @ett_glusterfs_mnt_flags, align 4
  %57 = call ptr @proto_tree_add_bitmask(ptr noundef %52, ptr noundef %53, i32 noundef %54, i32 noundef %55, i32 noundef %56, ptr noundef @glusterfs_rpc_dissect_statfs.flag_bits, i32 noundef 0)
  %58 = load i32, ptr %6, align 4
  %59 = add i32 %58, 8
  store i32 %59, ptr %6, align 4
  %60 = load ptr, ptr %5, align 8
  %61 = load ptr, ptr %4, align 8
  %62 = load i32, ptr @hf_glusterfs_namemax, align 4
  %63 = load i32, ptr %6, align 4
  %64 = call i32 @dissect_rpc_uint64(ptr noundef %60, ptr noundef %61, i32 noundef %62, i32 noundef %63)
  store i32 %64, ptr %6, align 4
  %65 = load i32, ptr %6, align 4
  ret i32 %65
}