; Function Attrs: null_pointer_is_valid sspstrong uwtable
define internal fastcc i32 @glusterfs_rpc_dissect_statfs(ptr noundef %0, ptr noundef %1, i32 noundef %2) unnamed_addr #0 {
  %4 = load i32, ptr @hf_glusterfs_bsize, align 4
  %5 = tail call i32 @dissect_rpc_uint64(ptr noundef %1, ptr noundef %0, i32 noundef %4, i32 noundef %2)
  %6 = load i32, ptr @hf_glusterfs_frsize, align 4
  %7 = tail call i32 @dissect_rpc_uint64(ptr noundef %1, ptr noundef %0, i32 noundef %6, i32 noundef %5)
  %8 = load i32, ptr @hf_glusterfs_blocks, align 4
  %9 = tail call i32 @dissect_rpc_uint64(ptr noundef %1, ptr noundef %0, i32 noundef %8, i32 noundef %7)
  %10 = load i32, ptr @hf_glusterfs_bfree, align 4
  %11 = tail call i32 @dissect_rpc_uint64(ptr noundef %1, ptr noundef %0, i32 noundef %10, i32 noundef %9)
  %12 = load i32, ptr @hf_glusterfs_bavail, align 4
  %13 = tail call i32 @dissect_rpc_uint64(ptr noundef %1, ptr noundef %0, i32 noundef %12, i32 noundef %11)
  %14 = load i32, ptr @hf_glusterfs_files, align 4
  %15 = tail call i32 @dissect_rpc_uint64(ptr noundef %1, ptr noundef %0, i32 noundef %14, i32 noundef %13)
  %16 = load i32, ptr @hf_glusterfs_ffree, align 4
  %17 = tail call i32 @dissect_rpc_uint64(ptr noundef %1, ptr noundef %0, i32 noundef %16, i32 noundef %15)
  %18 = load i32, ptr @hf_glusterfs_favail, align 4
  %19 = tail call i32 @dissect_rpc_uint64(ptr noundef %1, ptr noundef %0, i32 noundef %18, i32 noundef %17)
  %20 = load i32, ptr @hf_glusterfs_id, align 4
  %21 = tail call i32 @dissect_rpc_uint64(ptr noundef %1, ptr noundef %0, i32 noundef %20, i32 noundef %19)
  %22 = load i32, ptr @hf_glusterfs_mnt_flags, align 4
  %23 = load i32, ptr @ett_glusterfs_mnt_flags, align 4
  %24 = tail call ptr @proto_tree_add_bitmask(ptr noundef %0, ptr noundef %1, i32 noundef %21, i32 noundef %22, i32 noundef %23, ptr noundef nonnull @glusterfs_rpc_dissect_statfs.flag_bits, i32 noundef 0)
  %25 = add i32 %21, 8
  %26 = load i32, ptr @hf_glusterfs_namemax, align 4
  %27 = tail call i32 @dissect_rpc_uint64(ptr noundef %1, ptr noundef %0, i32 noundef %26, i32 noundef %25)
  ret i32 %27
}